target datalayout = "e-m:e-p270:32:32-p271:32:32-p272:64:64-i64:64-i128:128-f80:128-n8:16:32:64-S128"
target triple = "x86_64-unknown-linux-gnu"

%"class.QuantLib::AlphaFinder" = type { %"class.boost::shared_ptr", i32, %"class.std::vector", %"class.std::vector", %"class.std::vector", %"class.std::vector", double, double, double, double, double, double, double }
%"class.boost::shared_ptr" = type { ptr, %"class.boost::detail::shared_count" }
%"class.boost::detail::shared_count" = type { ptr }
%"class.std::vector" = type { %"struct.std::_Vector_base" }
%"struct.std::_Vector_base" = type { %"struct.std::_Vector_base<double, std::allocator<double>>::_Vector_impl" }
%"struct.std::_Vector_base<double, std::allocator<double>>::_Vector_impl" = type { %"struct.std::_Vector_base<double, std::allocator<double>>::_Vector_impl_data" }
%"struct.std::_Vector_base<double, std::allocator<double>>::_Vector_impl_data" = type { ptr, ptr, ptr }
%"class.QuantLib::quadratic" = type { double, double, double }

@.str = private unnamed_addr constant [8 x i8] c"px != 0\00", align 1
@__PRETTY_FUNCTION__._ZNK5boost10shared_ptrIN8QuantLib9AlphaFormEEptEv = private unnamed_addr constant [135 x i8] c"typename boost::detail::sp_member_access<T>::type boost::shared_ptr<QuantLib::AlphaForm>::operator->() const [T = QuantLib::AlphaForm]\00", align 1
@.str.1 = private unnamed_addr constant [102 x i8] c"generated/home/dtcxzyw/WorkSpace/SDK/vcpkg/installed/x64-linux/include/boost/smart_ptr/shared_ptr.hpp\00", align 1
@__PRETTY_FUNCTION__._ZNK5boost10shared_ptrIN8QuantLib9AlphaFormEEdeEv = private unnamed_addr constant [132 x i8] c"typename boost::detail::sp_dereference<T>::type boost::shared_ptr<QuantLib::AlphaForm>::operator*() const [T = QuantLib::AlphaForm]\00", align 1

; Function Attrs: mustprogress nounwind uwtable
define linkonce_odr noundef nonnull align 8 dereferenceable(8) ptr @_ZNSt6vectorIdSaIdEEixEm(ptr noundef nonnull align 8 dereferenceable(24) %this, i64 noundef %__n) #0 comdat align 2 {
entry:
  %this.addr = alloca ptr, align 8
  %__n.addr = alloca i64, align 8
  store ptr %this, ptr %this.addr, align 8, !tbaa !3
  store i64 %__n, ptr %__n.addr, align 8, !tbaa !26
  %this1 = load ptr, ptr %this.addr, align 8
  %_M_impl = getelementptr inbounds nuw %"struct.std::_Vector_base", ptr %this1, i32 0, i32 0
  %_M_start = getelementptr inbounds nuw %"struct.std::_Vector_base<double, std::allocator<double>>::_Vector_impl_data", ptr %_M_impl, i32 0, i32 0
  %0 = load ptr, ptr %_M_start, align 8, !tbaa !28
  %1 = load i64, ptr %__n.addr, align 8, !tbaa !26
  %add.ptr = getelementptr inbounds nuw double, ptr %0, i64 %1
  ret ptr %add.ptr
}

; Function Attrs: mustprogress uwtable
define linkonce_odr noundef nonnull align 8 dereferenceable(8) ptr @_ZNK5boost10shared_ptrIN8QuantLib9AlphaFormEEdeEv(ptr noundef nonnull align 8 dereferenceable(16) %this) #1 comdat align 2 {
entry:
  %this.addr = alloca ptr, align 8
  store ptr %this, ptr %this.addr, align 8, !tbaa !3
  %this1 = load ptr, ptr %this.addr, align 8
  %px = getelementptr inbounds nuw %"class.boost::shared_ptr", ptr %this1, i32 0, i32 0
  %0 = load ptr, ptr %px, align 8, !tbaa !7
  %cmp = icmp ne ptr %0, null
  %lnot = xor i1 %cmp, true
  %lnot2 = xor i1 %lnot, true
  %conv = zext i1 %lnot2 to i64
  %expval = call i64 @llvm.expect.i64(i64 %conv, i64 1)
  %tobool = icmp ne i64 %expval, 0
  br i1 %tobool, label %cond.true, label %cond.false

cond.true:                                        ; preds = %entry
  br label %cond.end

cond.false:                                       ; preds = %entry
  call void @_ZN5boost16assertion_failedEPKcS1_S1_l(ptr noundef @.str, ptr noundef @__PRETTY_FUNCTION__._ZNK5boost10shared_ptrIN8QuantLib9AlphaFormEEdeEv, ptr noundef @.str.1, i64 noundef 778)
  br label %cond.end

cond.end:                                         ; preds = %cond.false, %cond.true
  %px3 = getelementptr inbounds nuw %"class.boost::shared_ptr", ptr %this1, i32 0, i32 0
  %1 = load ptr, ptr %px3, align 8, !tbaa !7
  ret ptr %1
}

; Function Attrs: mustprogress nounwind uwtable
define linkonce_odr noundef nonnull align 8 dereferenceable(8) ptr @_ZNKSt6vectorIdSaIdEEixEm(ptr noundef nonnull align 8 dereferenceable(24) %this, i64 noundef %__n) #0 comdat align 2 {
entry:
  %this.addr = alloca ptr, align 8
  %__n.addr = alloca i64, align 8
  store ptr %this, ptr %this.addr, align 8, !tbaa !3
  store i64 %__n, ptr %__n.addr, align 8, !tbaa !26
  %this1 = load ptr, ptr %this.addr, align 8
  %_M_impl = getelementptr inbounds nuw %"struct.std::_Vector_base", ptr %this1, i32 0, i32 0
  %_M_start = getelementptr inbounds nuw %"struct.std::_Vector_base<double, std::allocator<double>>::_Vector_impl_data", ptr %_M_impl, i32 0, i32 0
  %0 = load ptr, ptr %_M_start, align 8, !tbaa !28
  %1 = load i64, ptr %__n.addr, align 8, !tbaa !26
  %add.ptr = getelementptr inbounds nuw double, ptr %0, i64 %1
  ret ptr %add.ptr
}

; Function Attrs: mustprogress uwtable
define linkonce_odr noundef ptr @_ZNK5boost10shared_ptrIN8QuantLib9AlphaFormEEptEv(ptr noundef nonnull align 8 dereferenceable(16) %this) #1 comdat align 2 {
entry:
  %this.addr = alloca ptr, align 8
  store ptr %this, ptr %this.addr, align 8, !tbaa !3
  %this1 = load ptr, ptr %this.addr, align 8
  %px = getelementptr inbounds nuw %"class.boost::shared_ptr", ptr %this1, i32 0, i32 0
  %0 = load ptr, ptr %px, align 8, !tbaa !7
  %cmp = icmp ne ptr %0, null
  %lnot = xor i1 %cmp, true
  %lnot2 = xor i1 %lnot, true
  %conv = zext i1 %lnot2 to i64
  %expval = call i64 @llvm.expect.i64(i64 %conv, i64 1)
  %tobool = icmp ne i64 %expval, 0
  br i1 %tobool, label %cond.true, label %cond.false

cond.true:                                        ; preds = %entry
  br label %cond.end

cond.false:                                       ; preds = %entry
  call void @_ZN5boost16assertion_failedEPKcS1_S1_l(ptr noundef @.str, ptr noundef @__PRETTY_FUNCTION__._ZNK5boost10shared_ptrIN8QuantLib9AlphaFormEEptEv, ptr noundef @.str.1, i64 noundef 784)
  br label %cond.end

cond.end:                                         ; preds = %cond.false, %cond.true
  %px3 = getelementptr inbounds nuw %"class.boost::shared_ptr", ptr %this1, i32 0, i32 0
  %1 = load ptr, ptr %px3, align 8, !tbaa !7
  ret ptr %1
}

; Function Attrs: mustprogress uwtable
define noundef zeroext i1 @_ZN8QuantLib11AlphaFinder9finalPartEdiRKSt6vectorIdSaIdEEdddRdS6_S6_RS3_(ptr noundef nonnull align 8 dereferenceable(176) %this, double noundef %alphaFound, i32 noundef %stepindex, ptr noundef nonnull align 8 dereferenceable(24) %ratetwohomogeneousvols, double noundef %quadraticPart, double noundef %linearPart, double noundef %constantPart, ptr noundef nonnull align 8 dereferenceable(8) %alpha, ptr noundef nonnull align 8 dereferenceable(8) %a, ptr noundef nonnull align 8 dereferenceable(8) %b, ptr noundef nonnull align 8 dereferenceable(24) %ratetwovols) #1 align 2 {
entry:
  %retval = alloca i1, align 1
  %this.addr = alloca ptr, align 8
  %alphaFound.addr = alloca double, align 8
  %stepindex.addr = alloca i32, align 4
  %ratetwohomogeneousvols.addr = alloca ptr, align 8
  %quadraticPart.addr = alloca double, align 8
  %linearPart.addr = alloca double, align 8
  %constantPart.addr = alloca double, align 8
  %alpha.addr = alloca ptr, align 8
  %a.addr = alloca ptr, align 8
  %b.addr = alloca ptr, align 8
  %ratetwovols.addr = alloca ptr, align 8
  %q2 = alloca %"class.QuantLib::quadratic", align 8
  %y = alloca double, align 8
  %varSoFar = alloca double, align 8
  %i = alloca i32, align 4
  %VarToFind = alloca double, align 8
  %cleanup.dest.slot = alloca i32, align 4
  %requiredSd = alloca double, align 8
  store ptr %this, ptr %this.addr, align 8, !tbaa !3
  store double %alphaFound, ptr %alphaFound.addr, align 8, !tbaa !10
  store i32 %stepindex, ptr %stepindex.addr, align 4, !tbaa !14
  store ptr %ratetwohomogeneousvols, ptr %ratetwohomogeneousvols.addr, align 8, !tbaa !3
  store double %quadraticPart, ptr %quadraticPart.addr, align 8, !tbaa !10
  store double %linearPart, ptr %linearPart.addr, align 8, !tbaa !10
  store double %constantPart, ptr %constantPart.addr, align 8, !tbaa !10
  store ptr %alpha, ptr %alpha.addr, align 8, !tbaa !3
  store ptr %a, ptr %a.addr, align 8, !tbaa !3
  store ptr %b, ptr %b.addr, align 8, !tbaa !3
  store ptr %ratetwovols, ptr %ratetwovols.addr, align 8, !tbaa !3
  %this1 = load ptr, ptr %this.addr, align 8
  %0 = load double, ptr %alphaFound.addr, align 8, !tbaa !10
  %1 = load ptr, ptr %alpha.addr, align 8, !tbaa !3
  store double %0, ptr %1, align 8, !tbaa !10
  call void @llvm.lifetime.start.p0(i64 24, ptr %q2) #14
  %2 = load double, ptr %quadraticPart.addr, align 8, !tbaa !10
  %3 = load double, ptr %linearPart.addr, align 8, !tbaa !10
  %4 = load double, ptr %constantPart.addr, align 8, !tbaa !10
  %targetVariance_ = getelementptr inbounds nuw %"class.QuantLib::AlphaFinder", ptr %this1, i32 0, i32 12
  %5 = load double, ptr %targetVariance_, align 8, !tbaa !32
  %sub = fsub double %4, %5
  call void @_ZN8QuantLib9quadraticC1Eddd(ptr noundef nonnull align 8 dereferenceable(24) %q2, double noundef %2, double noundef %3, double noundef %sub)
  %parametricform_ = getelementptr inbounds nuw %"class.QuantLib::AlphaFinder", ptr %this1, i32 0, i32 0
  %call = call noundef ptr @_ZNK5boost10shared_ptrIN8QuantLib9AlphaFormEEptEv(ptr noundef nonnull align 8 dereferenceable(16) %parametricform_)
  %6 = load ptr, ptr %alpha.addr, align 8, !tbaa !3
  %7 = load double, ptr %6, align 8, !tbaa !10
  %vtable = load ptr, ptr %call, align 8, !tbaa !12
  %vfn = getelementptr inbounds ptr, ptr %vtable, i64 3
  %8 = load ptr, ptr %vfn, align 8
  call void %8(ptr noundef nonnull align 8 dereferenceable(8) %call, double noundef %7)
  call void @llvm.lifetime.start.p0(i64 8, ptr %y) #14
  %9 = load ptr, ptr %a.addr, align 8, !tbaa !3
  %call2 = call noundef zeroext i1 @_ZNK8QuantLib9quadratic5rootsERdS1_(ptr noundef nonnull align 8 dereferenceable(24) %q2, ptr noundef nonnull align 8 dereferenceable(8) %9, ptr noundef nonnull align 8 dereferenceable(8) %y)
  call void @llvm.lifetime.start.p0(i64 8, ptr %varSoFar) #14
  store double 0.000000e+00, ptr %varSoFar, align 8, !tbaa !10
  call void @llvm.lifetime.start.p0(i64 4, ptr %i) #14
  store i32 0, ptr %i, align 4, !tbaa !14
  br label %for.cond

for.cond:                                         ; preds = %for.inc, %entry
  %10 = load i32, ptr %i, align 4, !tbaa !14
  %11 = load i32, ptr %stepindex.addr, align 4, !tbaa !14
  %add = add nsw i32 %11, 1
  %cmp = icmp slt i32 %10, %add
  br i1 %cmp, label %for.body, label %for.cond.cleanup

for.cond.cleanup:                                 ; preds = %for.cond
  call void @llvm.lifetime.end.p0(i64 4, ptr %i) #14
  br label %for.end

for.body:                                         ; preds = %for.cond
  %12 = load ptr, ptr %ratetwohomogeneousvols.addr, align 8, !tbaa !3
  %13 = load i32, ptr %i, align 4, !tbaa !14
  %conv = sext i32 %13 to i64
  %call3 = call noundef nonnull align 8 dereferenceable(8) ptr @_ZNKSt6vectorIdSaIdEEixEm(ptr noundef nonnull align 8 dereferenceable(24) %12, i64 noundef %conv) #14
  %14 = load double, ptr %call3, align 8, !tbaa !10
  %parametricform_4 = getelementptr inbounds nuw %"class.QuantLib::AlphaFinder", ptr %this1, i32 0, i32 0
  %call5 = call noundef nonnull align 8 dereferenceable(8) ptr @_ZNK5boost10shared_ptrIN8QuantLib9AlphaFormEEdeEv(ptr noundef nonnull align 8 dereferenceable(16) %parametricform_4)
  %15 = load i32, ptr %i, align 4, !tbaa !14
  %vtable6 = load ptr, ptr %call5, align 8, !tbaa !12
  %vfn7 = getelementptr inbounds ptr, ptr %vtable6, i64 2
  %16 = load ptr, ptr %vfn7, align 8
  %call8 = call noundef double %16(ptr noundef nonnull align 8 dereferenceable(8) %call5, i32 noundef %15)
  %mul = fmul double %14, %call8
  %17 = load ptr, ptr %a.addr, align 8, !tbaa !3
  %18 = load double, ptr %17, align 8, !tbaa !10
  %mul9 = fmul double %mul, %18
  %19 = load ptr, ptr %ratetwovols.addr, align 8, !tbaa !3
  %20 = load i32, ptr %i, align 4, !tbaa !14
  %conv10 = sext i32 %20 to i64
  %call11 = call noundef nonnull align 8 dereferenceable(8) ptr @_ZNSt6vectorIdSaIdEEixEm(ptr noundef nonnull align 8 dereferenceable(24) %19, i64 noundef %conv10) #14
  store double %mul9, ptr %call11, align 8, !tbaa !10
  %21 = load ptr, ptr %ratetwovols.addr, align 8, !tbaa !3
  %22 = load i32, ptr %i, align 4, !tbaa !14
  %conv12 = sext i32 %22 to i64
  %call13 = call noundef nonnull align 8 dereferenceable(8) ptr @_ZNSt6vectorIdSaIdEEixEm(ptr noundef nonnull align 8 dereferenceable(24) %21, i64 noundef %conv12) #14
  %23 = load double, ptr %call13, align 8, !tbaa !10
  %24 = load ptr, ptr %ratetwovols.addr, align 8, !tbaa !3
  %25 = load i32, ptr %i, align 4, !tbaa !14
  %conv14 = sext i32 %25 to i64
  %call15 = call noundef nonnull align 8 dereferenceable(8) ptr @_ZNSt6vectorIdSaIdEEixEm(ptr noundef nonnull align 8 dereferenceable(24) %24, i64 noundef %conv14) #14
  %26 = load double, ptr %call15, align 8, !tbaa !10
  %27 = load double, ptr %varSoFar, align 8, !tbaa !10
  %28 = call double @llvm.fmuladd.f64(double %23, double %26, double %27)
  store double %28, ptr %varSoFar, align 8, !tbaa !10
  br label %for.inc

for.inc:                                          ; preds = %for.body
  %29 = load i32, ptr %i, align 4, !tbaa !14
  %inc = add nsw i32 %29, 1
  store i32 %inc, ptr %i, align 4, !tbaa !14
  br label %for.cond, !llvm.loop !33

for.end:                                          ; preds = %for.cond.cleanup
  call void @llvm.lifetime.start.p0(i64 8, ptr %VarToFind) #14
  %totalVar_ = getelementptr inbounds nuw %"class.QuantLib::AlphaFinder", ptr %this1, i32 0, i32 11
  %30 = load double, ptr %totalVar_, align 8, !tbaa !34
  %31 = load double, ptr %varSoFar, align 8, !tbaa !10
  %sub17 = fsub double %30, %31
  store double %sub17, ptr %VarToFind, align 8, !tbaa !10
  %32 = load double, ptr %VarToFind, align 8, !tbaa !10
  %cmp18 = fcmp olt double %32, 0.000000e+00
  br i1 %cmp18, label %if.then, label %if.end

if.then:                                          ; preds = %for.end
  store i1 false, ptr %retval, align 1
  store i32 1, ptr %cleanup.dest.slot, align 4
  br label %cleanup

if.end:                                           ; preds = %for.end
  call void @llvm.lifetime.start.p0(i64 8, ptr %requiredSd) #14
  %33 = load double, ptr %VarToFind, align 8, !tbaa !10
  %call19 = call double @sqrt(double noundef %33) #14, !tbaa !14
  store double %call19, ptr %requiredSd, align 8, !tbaa !10
  %34 = load double, ptr %requiredSd, align 8, !tbaa !10
  %35 = load ptr, ptr %ratetwohomogeneousvols.addr, align 8, !tbaa !3
  %36 = load i32, ptr %stepindex.addr, align 4, !tbaa !14
  %add20 = add nsw i32 %36, 1
  %conv21 = sext i32 %add20 to i64
  %call22 = call noundef nonnull align 8 dereferenceable(8) ptr @_ZNKSt6vectorIdSaIdEEixEm(ptr noundef nonnull align 8 dereferenceable(24) %35, i64 noundef %conv21) #14
  %37 = load double, ptr %call22, align 8, !tbaa !10
  %parametricform_23 = getelementptr inbounds nuw %"class.QuantLib::AlphaFinder", ptr %this1, i32 0, i32 0
  %call24 = call noundef nonnull align 8 dereferenceable(8) ptr @_ZNK5boost10shared_ptrIN8QuantLib9AlphaFormEEdeEv(ptr noundef nonnull align 8 dereferenceable(16) %parametricform_23)
  %38 = load i32, ptr %stepindex.addr, align 4, !tbaa !14
  %vtable25 = load ptr, ptr %call24, align 8, !tbaa !12
  %vfn26 = getelementptr inbounds ptr, ptr %vtable25, i64 2
  %39 = load ptr, ptr %vfn26, align 8
  %call27 = call noundef double %39(ptr noundef nonnull align 8 dereferenceable(8) %call24, i32 noundef %38)
  %mul28 = fmul double %37, %call27
  %div = fdiv double %34, %mul28
  %40 = load ptr, ptr %b.addr, align 8, !tbaa !3
  store double %div, ptr %40, align 8, !tbaa !10
  %41 = load double, ptr %requiredSd, align 8, !tbaa !10
  %42 = load ptr, ptr %ratetwovols.addr, align 8, !tbaa !3
  %43 = load i32, ptr %stepindex.addr, align 4, !tbaa !14
  %add29 = add nsw i32 %43, 1
  %conv30 = sext i32 %add29 to i64
  %call31 = call noundef nonnull align 8 dereferenceable(8) ptr @_ZNSt6vectorIdSaIdEEixEm(ptr noundef nonnull align 8 dereferenceable(24) %42, i64 noundef %conv30) #14
  store double %41, ptr %call31, align 8, !tbaa !10
  store i1 true, ptr %retval, align 1
  store i32 1, ptr %cleanup.dest.slot, align 4
  call void @llvm.lifetime.end.p0(i64 8, ptr %requiredSd) #14
  br label %cleanup

cleanup:                                          ; preds = %if.end, %if.then
  call void @llvm.lifetime.end.p0(i64 8, ptr %VarToFind) #14
  call void @llvm.lifetime.end.p0(i64 8, ptr %varSoFar) #14
  call void @llvm.lifetime.end.p0(i64 8, ptr %y) #14
  call void @llvm.lifetime.end.p0(i64 24, ptr %q2) #14
  %44 = load i1, ptr %retval, align 1
  ret i1 %44
}