; Function Attrs: mustprogress uwtable
define noundef zeroext i1 @_ZN8QuantLib11AlphaFinder9finalPartEdiRKSt6vectorIdSaIdEEdddRdS6_S6_RS3_(ptr nocapture noundef nonnull readonly align 8 dereferenceable(176) %this, double noundef %alphaFound, i32 noundef %stepindex, ptr nocapture noundef nonnull readonly align 8 dereferenceable(24) %ratetwohomogeneousvols, double noundef %quadraticPart, double noundef %linearPart, double noundef %constantPart, ptr nocapture noundef nonnull align 8 dereferenceable(8) %alpha, ptr noundef nonnull align 8 dereferenceable(8) %a, ptr nocapture noundef nonnull writeonly align 8 dereferenceable(8) %b, ptr nocapture noundef nonnull readonly align 8 dereferenceable(24) %ratetwovols) local_unnamed_addr #1 align 2 {
entry:
  %q2 = alloca %"class.QuantLib::quadratic", align 8
  %y = alloca double, align 8
  store double %alphaFound, ptr %alpha, align 8, !tbaa !24
  call void @llvm.lifetime.start.p0(i64 24, ptr nonnull %q2) #14
  %targetVariance_ = getelementptr inbounds nuw i8, ptr %this, i64 168
  %0 = load double, ptr %targetVariance_, align 8, !tbaa !30
  %sub = fsub double %constantPart, %0
  call void @_ZN8QuantLib9quadraticC1Eddd(ptr noundef nonnull align 8 dereferenceable(24) %q2, double noundef %quadraticPart, double noundef %linearPart, double noundef %sub)
  %1 = load ptr, ptr %this, align 8, !tbaa !3
  %cmp.not.i = icmp eq ptr %1, null
  br i1 %cmp.not.i, label %cond.false.i, label %_ZNK5boost10shared_ptrIN8QuantLib9AlphaFormEEptEv.exit, !prof !10

cond.false.i:                                     ; preds = %entry
  call void @_ZN5boost16assertion_failedEPKcS1_S1_l(ptr noundef nonnull @.str, ptr noundef nonnull @__PRETTY_FUNCTION__._ZNK5boost10shared_ptrIN8QuantLib9AlphaFormEEptEv, ptr noundef nonnull @.str.1, i64 noundef 784)
  %.pre.i = load ptr, ptr %this, align 8, !tbaa !3
  br label %_ZNK5boost10shared_ptrIN8QuantLib9AlphaFormEEptEv.exit

_ZNK5boost10shared_ptrIN8QuantLib9AlphaFormEEptEv.exit: ; preds = %entry, %cond.false.i
  %2 = phi ptr [ %1, %entry ], [ %.pre.i, %cond.false.i ]
  %3 = load double, ptr %alpha, align 8, !tbaa !24
  %vtable = load ptr, ptr %2, align 8, !tbaa !11
  %vfn = getelementptr inbounds i8, ptr %vtable, i64 24
  %4 = load ptr, ptr %vfn, align 8
  call void %4(ptr noundef nonnull align 8 dereferenceable(8) %2, double noundef %3)
  call void @llvm.lifetime.start.p0(i64 8, ptr nonnull %y) #14
  %call2 = call noundef zeroext i1 @_ZNK8QuantLib9quadratic5rootsERdS1_(ptr noundef nonnull align 8 dereferenceable(24) %q2, ptr noundef nonnull align 8 dereferenceable(8) %a, ptr noundef nonnull align 8 dereferenceable(8) %y)
  %cmp.not31 = icmp slt i32 %stepindex, 0
  br i1 %cmp.not31, label %for.cond.cleanup, label %for.body.preheader

for.body.preheader:                               ; preds = %_ZNK5boost10shared_ptrIN8QuantLib9AlphaFormEEptEv.exit
  %5 = add nuw i32 %stepindex, 1
  %wide.trip.count = zext i32 %5 to i64
  br label %for.body

for.cond.cleanup:                                 ; preds = %_ZNK5boost10shared_ptrIN8QuantLib9AlphaFormEEdeEv.exit, %_ZNK5boost10shared_ptrIN8QuantLib9AlphaFormEEptEv.exit
  %varSoFar.0.lcssa = phi double [ 0.000000e+00, %_ZNK5boost10shared_ptrIN8QuantLib9AlphaFormEEptEv.exit ], [ %15, %_ZNK5boost10shared_ptrIN8QuantLib9AlphaFormEEdeEv.exit ]
  %totalVar_ = getelementptr inbounds nuw i8, ptr %this, i64 160
  %6 = load double, ptr %totalVar_, align 8, !tbaa !31
  %sub17 = fsub double %6, %varSoFar.0.lcssa
  %cmp18 = fcmp uge double %sub17, 0.000000e+00
  br i1 %cmp18, label %if.end, label %cleanup

for.body:                                         ; preds = %for.body.preheader, %_ZNK5boost10shared_ptrIN8QuantLib9AlphaFormEEdeEv.exit
  %indvars.iv = phi i64 [ 0, %for.body.preheader ], [ %indvars.iv.next, %_ZNK5boost10shared_ptrIN8QuantLib9AlphaFormEEdeEv.exit ]
  %varSoFar.033 = phi double [ 0.000000e+00, %for.body.preheader ], [ %15, %_ZNK5boost10shared_ptrIN8QuantLib9AlphaFormEEdeEv.exit ]
  %7 = load ptr, ptr %ratetwohomogeneousvols, align 8, !tbaa !23
  %add.ptr.i = getelementptr inbounds nuw double, ptr %7, i64 %indvars.iv
  %8 = load double, ptr %add.ptr.i, align 8, !tbaa !24
  %9 = load ptr, ptr %this, align 8, !tbaa !3
  %cmp.not.i19 = icmp eq ptr %9, null
  br i1 %cmp.not.i19, label %cond.false.i20, label %_ZNK5boost10shared_ptrIN8QuantLib9AlphaFormEEdeEv.exit, !prof !10

cond.false.i20:                                   ; preds = %for.body
  call void @_ZN5boost16assertion_failedEPKcS1_S1_l(ptr noundef nonnull @.str, ptr noundef nonnull @__PRETTY_FUNCTION__._ZNK5boost10shared_ptrIN8QuantLib9AlphaFormEEdeEv, ptr noundef nonnull @.str.1, i64 noundef 778)
  %.pre.i21 = load ptr, ptr %this, align 8, !tbaa !3
  br label %_ZNK5boost10shared_ptrIN8QuantLib9AlphaFormEEdeEv.exit

_ZNK5boost10shared_ptrIN8QuantLib9AlphaFormEEdeEv.exit: ; preds = %for.body, %cond.false.i20
  %10 = phi ptr [ %9, %for.body ], [ %.pre.i21, %cond.false.i20 ]
  %vtable6 = load ptr, ptr %10, align 8, !tbaa !11
  %vfn7 = getelementptr inbounds i8, ptr %vtable6, i64 16
  %11 = load ptr, ptr %vfn7, align 8
  %12 = trunc nuw nsw i64 %indvars.iv to i32
  %call8 = call noundef double %11(ptr noundef nonnull align 8 dereferenceable(8) %10, i32 noundef %12)
  %mul = fmul double %8, %call8
  %13 = load double, ptr %a, align 8, !tbaa !24
  %mul9 = fmul double %mul, %13
  %14 = load ptr, ptr %ratetwovols, align 8, !tbaa !23
  %add.ptr.i22 = getelementptr inbounds nuw double, ptr %14, i64 %indvars.iv
  store double %mul9, ptr %add.ptr.i22, align 8, !tbaa !24
  %15 = call double @llvm.fmuladd.f64(double %mul9, double %mul9, double %varSoFar.033)
  %indvars.iv.next = add nuw nsw i64 %indvars.iv, 1
  %exitcond.not = icmp eq i64 %indvars.iv.next, %wide.trip.count
  br i1 %exitcond.not, label %for.cond.cleanup, label %for.body, !llvm.loop !32

if.end:                                           ; preds = %for.cond.cleanup
  %add.le = add nsw i32 %stepindex, 1
  %call19 = call double @sqrt(double noundef %sub17) #14, !tbaa !33
  %conv21 = sext i32 %add.le to i64
  %16 = load ptr, ptr %ratetwohomogeneousvols, align 8, !tbaa !23
  %add.ptr.i25 = getelementptr inbounds nuw double, ptr %16, i64 %conv21
  %17 = load double, ptr %add.ptr.i25, align 8, !tbaa !24
  %18 = load ptr, ptr %this, align 8, !tbaa !3
  %cmp.not.i26 = icmp eq ptr %18, null
  br i1 %cmp.not.i26, label %cond.false.i27, label %_ZNK5boost10shared_ptrIN8QuantLib9AlphaFormEEdeEv.exit29, !prof !10

cond.false.i27:                                   ; preds = %if.end
  call void @_ZN5boost16assertion_failedEPKcS1_S1_l(ptr noundef nonnull @.str, ptr noundef nonnull @__PRETTY_FUNCTION__._ZNK5boost10shared_ptrIN8QuantLib9AlphaFormEEdeEv, ptr noundef nonnull @.str.1, i64 noundef 778)
  %.pre.i28 = load ptr, ptr %this, align 8, !tbaa !3
  br label %_ZNK5boost10shared_ptrIN8QuantLib9AlphaFormEEdeEv.exit29

_ZNK5boost10shared_ptrIN8QuantLib9AlphaFormEEdeEv.exit29: ; preds = %if.end, %cond.false.i27
  %19 = phi ptr [ %18, %if.end ], [ %.pre.i28, %cond.false.i27 ]
  %vtable25 = load ptr, ptr %19, align 8, !tbaa !11
  %vfn26 = getelementptr inbounds i8, ptr %vtable25, i64 16
  %20 = load ptr, ptr %vfn26, align 8
  %call27 = call noundef double %20(ptr noundef nonnull align 8 dereferenceable(8) %19, i32 noundef %stepindex)
  %mul28 = fmul double %17, %call27
  %div = fdiv double %call19, %mul28
  store double %div, ptr %b, align 8, !tbaa !24
  %21 = load ptr, ptr %ratetwovols, align 8, !tbaa !23
  %add.ptr.i30 = getelementptr inbounds nuw double, ptr %21, i64 %conv21
  store double %call19, ptr %add.ptr.i30, align 8, !tbaa !24
  br label %cleanup

cleanup:                                          ; preds = %for.cond.cleanup, %_ZNK5boost10shared_ptrIN8QuantLib9AlphaFormEEdeEv.exit29
  call void @llvm.lifetime.end.p0(i64 8, ptr nonnull %y) #14
  call void @llvm.lifetime.end.p0(i64 24, ptr nonnull %q2) #14
  ret i1 %cmp18
}